target datalayout = "e-m:e-p270:32:32-p271:32:32-p272:64:64-i64:64-i128:128-f80:128-n8:16:32:64-S128"
target triple = "x86_64-pc-linux-gnu"

%struct._gsm_map_stat_t = type { [256 x i32], [256 x i32], [256 x i32], [256 x i32] }
%struct._gsm_map_tap_rec_t = type { i32, i32, i16 }

; Function Attrs: mustprogress nounwind uwtable
define internal noundef i32 @_ZL22gsm_map_summary_packetPvP12_packet_infoP12epan_dissectPKvj(ptr noundef %0, ptr noundef %1, ptr noundef %2, ptr noundef %3, i32 noundef %4) #3 {
  %6 = alloca ptr, align 8
  %7 = alloca ptr, align 8
  %8 = alloca ptr, align 8
  %9 = alloca ptr, align 8
  %10 = alloca i32, align 4
  %11 = alloca ptr, align 8
  %12 = alloca ptr, align 8
  store ptr %0, ptr %6, align 8
  store ptr %1, ptr %7, align 8
  store ptr %2, ptr %8, align 8
  store ptr %3, ptr %9, align 8
  store i32 %4, ptr %10, align 4
  %13 = load ptr, ptr %6, align 8
  store ptr %13, ptr %11, align 8
  %14 = load ptr, ptr %9, align 8
  store ptr %14, ptr %12, align 8
  %15 = load ptr, ptr %12, align 8
  %16 = getelementptr inbounds %struct._gsm_map_tap_rec_t, ptr %15, i32 0, i32 0
  %17 = load i32, ptr %16, align 4
  %18 = icmp ne i32 %17, 0
  br i1 %18, label %19, label %42

19:                                               ; preds = %5
  %20 = load ptr, ptr %11, align 8
  %21 = getelementptr inbounds %struct._gsm_map_stat_t, ptr %20, i32 0, i32 0
  %22 = load ptr, ptr %12, align 8
  %23 = getelementptr inbounds %struct._gsm_map_tap_rec_t, ptr %22, i32 0, i32 1
  %24 = load i32, ptr %23, align 4
  %25 = zext i32 %24 to i64
  %26 = getelementptr [256 x i32], ptr %21, i64 0, i64 %25
  %27 = load i32, ptr %26, align 4
  %28 = add i32 %27, 1
  store i32 %28, ptr %26, align 4
  %29 = load ptr, ptr %12, align 8
  %30 = getelementptr inbounds %struct._gsm_map_tap_rec_t, ptr %29, i32 0, i32 2
  %31 = load i16, ptr %30, align 4
  %32 = zext i16 %31 to i32
  %33 = load ptr, ptr %11, align 8
  %34 = getelementptr inbounds %struct._gsm_map_stat_t, ptr %33, i32 0, i32 1
  %35 = load ptr, ptr %12, align 8
  %36 = getelementptr inbounds %struct._gsm_map_tap_rec_t, ptr %35, i32 0, i32 1
  %37 = load i32, ptr %36, align 4
  %38 = zext i32 %37 to i64
  %39 = getelementptr [256 x i32], ptr %34, i64 0, i64 %38
  %40 = load i32, ptr %39, align 4
  %41 = add i32 %40, %32
  store i32 %41, ptr %39, align 4
  br label %65

42:                                               ; preds = %5
  %43 = load ptr, ptr %11, align 8
  %44 = getelementptr inbounds %struct._gsm_map_stat_t, ptr %43, i32 0, i32 2
  %45 = load ptr, ptr %12, align 8
  %46 = getelementptr inbounds %struct._gsm_map_tap_rec_t, ptr %45, i32 0, i32 1
  %47 = load i32, ptr %46, align 4
  %48 = zext i32 %47 to i64
  %49 = getelementptr [256 x i32], ptr %44, i64 0, i64 %48
  %50 = load i32, ptr %49, align 4
  %51 = add i32 %50, 1
  store i32 %51, ptr %49, align 4
  %52 = load ptr, ptr %12, align 8
  %53 = getelementptr inbounds %struct._gsm_map_tap_rec_t, ptr %52, i32 0, i32 2
  %54 = load i16, ptr %53, align 4
  %55 = zext i16 %54 to i32
  %56 = load ptr, ptr %11, align 8
  %57 = getelementptr inbounds %struct._gsm_map_stat_t, ptr %56, i32 0, i32 3
  %58 = load ptr, ptr %12, align 8
  %59 = getelementptr inbounds %struct._gsm_map_tap_rec_t, ptr %58, i32 0, i32 1
  %60 = load i32, ptr %59, align 4
  %61 = zext i32 %60 to i64
  %62 = getelementptr [256 x i32], ptr %57, i64 0, i64 %61
  %63 = load i32, ptr %62, align 4
  %64 = add i32 %63, %55
  store i32 %64, ptr %62, align 4
  br label %65

65:                                               ; preds = %42, %19
  ret i32 0
}