; Function Attrs: mustprogress nofree norecurse nosync nounwind willreturn memory(argmem: readwrite) uwtable
define internal noundef i32 @_ZL22gsm_map_summary_packetPvP12_packet_infoP12epan_dissectPKvj(ptr nocapture noundef %0, ptr nocapture readnone %1, ptr nocapture readnone %2, ptr nocapture noundef readonly %3, i32 %4) #9 {
  %6 = load i32, ptr %3, align 4
  %.not = icmp eq i32 %6, 0
  %.sink25.idx = select i1 %.not, i64 2048, i64 0
  %.sink25 = getelementptr inbounds i8, ptr %0, i64 %.sink25.idx
  %.sink = select i1 %.not, i64 3072, i64 1024
  %7 = getelementptr inbounds i8, ptr %3, i64 4
  %8 = load i32, ptr %7, align 4
  %9 = zext i32 %8 to i64
  %10 = getelementptr [256 x i32], ptr %.sink25, i64 0, i64 %9
  %11 = load i32, ptr %10, align 4
  %12 = add i32 %11, 1
  store i32 %12, ptr %10, align 4
  %13 = getelementptr inbounds i8, ptr %3, i64 8
  %14 = load i16, ptr %13, align 4
  %15 = zext i16 %14 to i32
  %16 = getelementptr inbounds i8, ptr %0, i64 %.sink
  %17 = load i32, ptr %7, align 4
  %18 = zext i32 %17 to i64
  %19 = getelementptr [256 x i32], ptr %16, i64 0, i64 %18
  %20 = load i32, ptr %19, align 4
  %21 = add i32 %20, %15
  store i32 %21, ptr %19, align 4
  ret i32 0
}